target datalayout = "e-m:e-p270:32:32-p271:32:32-p272:64:64-i64:64-i128:128-f80:128-n8:16:32:64-S128"
target triple = "x86_64-pc-linux-gnu"

%struct.xl_xact_parsed_commit = type { i64, i32, i32, i32, i32, ptr, i32, ptr, i32, ptr, i32, ptr, i32, [200 x i8], i32, ptr, i32, ptr, i64, i64 }
%struct.xl_xact_prepare = type { i32, i32, i32, i32, i64, i32, i32, i32, i32, i32, i32, i32, i8, i16, i64, i64 }

; Function Attrs: nounwind uwtable
define dso_local void @ParsePrepareRecord(i8 noundef zeroext %0, ptr noundef %1, ptr noundef %2) #0 {
  %4 = alloca i8, align 1
  %5 = alloca ptr, align 8
  %6 = alloca ptr, align 8
  %7 = alloca ptr, align 8
  store i8 %0, ptr %4, align 1
  store ptr %1, ptr %5, align 8
  store ptr %2, ptr %6, align 8
  call void @llvm.lifetime.start.p0(i64 8, ptr %7) #7
  %8 = load ptr, ptr %5, align 8
  %9 = getelementptr inbounds nuw i8, ptr %8, i64 72
  store ptr %9, ptr %7, align 8
  %10 = load ptr, ptr %6, align 8
  call void @llvm.memset.p0.i64(ptr align 8 %10, i8 0, i64 328, i1 false)
  %11 = load ptr, ptr %5, align 8
  %12 = getelementptr inbounds nuw %struct.xl_xact_prepare, ptr %11, i32 0, i32 4
  %13 = load i64, ptr %12, align 8
  %14 = load ptr, ptr %6, align 8
  %15 = getelementptr inbounds nuw %struct.xl_xact_parsed_commit, ptr %14, i32 0, i32 0
  store i64 %13, ptr %15, align 8
  %16 = load ptr, ptr %5, align 8
  %17 = getelementptr inbounds nuw %struct.xl_xact_prepare, ptr %16, i32 0, i32 14
  %18 = load i64, ptr %17, align 8
  %19 = load ptr, ptr %6, align 8
  %20 = getelementptr inbounds nuw %struct.xl_xact_parsed_commit, ptr %19, i32 0, i32 18
  store i64 %18, ptr %20, align 8
  %21 = load ptr, ptr %5, align 8
  %22 = getelementptr inbounds nuw %struct.xl_xact_prepare, ptr %21, i32 0, i32 15
  %23 = load i64, ptr %22, align 8
  %24 = load ptr, ptr %6, align 8
  %25 = getelementptr inbounds nuw %struct.xl_xact_parsed_commit, ptr %24, i32 0, i32 19
  store i64 %23, ptr %25, align 8
  %26 = load ptr, ptr %5, align 8
  %27 = getelementptr inbounds nuw %struct.xl_xact_prepare, ptr %26, i32 0, i32 2
  %28 = load i32, ptr %27, align 8
  %29 = load ptr, ptr %6, align 8
  %30 = getelementptr inbounds nuw %struct.xl_xact_parsed_commit, ptr %29, i32 0, i32 12
  store i32 %28, ptr %30, align 8
  %31 = load ptr, ptr %5, align 8
  %32 = getelementptr inbounds nuw %struct.xl_xact_prepare, ptr %31, i32 0, i32 3
  %33 = load i32, ptr %32, align 4
  %34 = load ptr, ptr %6, align 8
  %35 = getelementptr inbounds nuw %struct.xl_xact_parsed_commit, ptr %34, i32 0, i32 2
  store i32 %33, ptr %35, align 4
  %36 = load ptr, ptr %5, align 8
  %37 = getelementptr inbounds nuw %struct.xl_xact_prepare, ptr %36, i32 0, i32 6
  %38 = load i32, ptr %37, align 4
  %39 = load ptr, ptr %6, align 8
  %40 = getelementptr inbounds nuw %struct.xl_xact_parsed_commit, ptr %39, i32 0, i32 4
  store i32 %38, ptr %40, align 4
  %41 = load ptr, ptr %5, align 8
  %42 = getelementptr inbounds nuw %struct.xl_xact_prepare, ptr %41, i32 0, i32 7
  %43 = load i32, ptr %42, align 8
  %44 = load ptr, ptr %6, align 8
  %45 = getelementptr inbounds nuw %struct.xl_xact_parsed_commit, ptr %44, i32 0, i32 6
  store i32 %43, ptr %45, align 8
  %46 = load ptr, ptr %5, align 8
  %47 = getelementptr inbounds nuw %struct.xl_xact_prepare, ptr %46, i32 0, i32 8
  %48 = load i32, ptr %47, align 4
  %49 = load ptr, ptr %6, align 8
  %50 = getelementptr inbounds nuw %struct.xl_xact_parsed_commit, ptr %49, i32 0, i32 14
  store i32 %48, ptr %50, align 4
  %51 = load ptr, ptr %5, align 8
  %52 = getelementptr inbounds nuw %struct.xl_xact_prepare, ptr %51, i32 0, i32 11
  %53 = load i32, ptr %52, align 8
  %54 = load ptr, ptr %6, align 8
  %55 = getelementptr inbounds nuw %struct.xl_xact_parsed_commit, ptr %54, i32 0, i32 10
  store i32 %53, ptr %55, align 8
  %56 = load ptr, ptr %6, align 8
  %57 = getelementptr inbounds nuw %struct.xl_xact_parsed_commit, ptr %56, i32 0, i32 13
  %58 = getelementptr inbounds [200 x i8], ptr %57, i64 0, i64 0
  %59 = load ptr, ptr %7, align 8
  %60 = load ptr, ptr %5, align 8
  %61 = getelementptr inbounds nuw %struct.xl_xact_prepare, ptr %60, i32 0, i32 13
  %62 = load i16, ptr %61, align 2
  %63 = zext i16 %62 to i64
  %64 = call ptr @strncpy(ptr noundef %58, ptr noundef %59, i64 noundef %63) #7
  %65 = load ptr, ptr %5, align 8
  %66 = getelementptr inbounds nuw %struct.xl_xact_prepare, ptr %65, i32 0, i32 13
  %67 = load i16, ptr %66, align 2
  %68 = zext i16 %67 to i64
  %69 = add i64 %68, 7
  %70 = and i64 %69, -8
  %71 = load ptr, ptr %7, align 8
  %72 = getelementptr inbounds nuw i8, ptr %71, i64 %70
  store ptr %72, ptr %7, align 8
  %73 = load ptr, ptr %7, align 8
  %74 = load ptr, ptr %6, align 8
  %75 = getelementptr inbounds nuw %struct.xl_xact_parsed_commit, ptr %74, i32 0, i32 5
  store ptr %73, ptr %75, align 8
  %76 = load ptr, ptr %5, align 8
  %77 = getelementptr inbounds nuw %struct.xl_xact_prepare, ptr %76, i32 0, i32 6
  %78 = load i32, ptr %77, align 4
  %79 = sext i32 %78 to i64
  %80 = mul i64 %79, 4
  %81 = add i64 %80, 7
  %82 = and i64 %81, -8
  %83 = load ptr, ptr %7, align 8
  %84 = getelementptr inbounds nuw i8, ptr %83, i64 %82
  store ptr %84, ptr %7, align 8
  %85 = load ptr, ptr %7, align 8
  %86 = load ptr, ptr %6, align 8
  %87 = getelementptr inbounds nuw %struct.xl_xact_parsed_commit, ptr %86, i32 0, i32 7
  store ptr %85, ptr %87, align 8
  %88 = load ptr, ptr %5, align 8
  %89 = getelementptr inbounds nuw %struct.xl_xact_prepare, ptr %88, i32 0, i32 7
  %90 = load i32, ptr %89, align 8
  %91 = sext i32 %90 to i64
  %92 = mul i64 %91, 12
  %93 = add i64 %92, 7
  %94 = and i64 %93, -8
  %95 = load ptr, ptr %7, align 8
  %96 = getelementptr inbounds nuw i8, ptr %95, i64 %94
  store ptr %96, ptr %7, align 8
  %97 = load ptr, ptr %7, align 8
  %98 = load ptr, ptr %6, align 8
  %99 = getelementptr inbounds nuw %struct.xl_xact_parsed_commit, ptr %98, i32 0, i32 15
  store ptr %97, ptr %99, align 8
  %100 = load ptr, ptr %5, align 8
  %101 = getelementptr inbounds nuw %struct.xl_xact_prepare, ptr %100, i32 0, i32 8
  %102 = load i32, ptr %101, align 4
  %103 = sext i32 %102 to i64
  %104 = mul i64 %103, 12
  %105 = add i64 %104, 7
  %106 = and i64 %105, -8
  %107 = load ptr, ptr %7, align 8
  %108 = getelementptr inbounds nuw i8, ptr %107, i64 %106
  store ptr %108, ptr %7, align 8
  %109 = load ptr, ptr %7, align 8
  %110 = load ptr, ptr %6, align 8
  %111 = getelementptr inbounds nuw %struct.xl_xact_parsed_commit, ptr %110, i32 0, i32 9
  store ptr %109, ptr %111, align 8
  %112 = load ptr, ptr %5, align 8
  %113 = getelementptr inbounds nuw %struct.xl_xact_prepare, ptr %112, i32 0, i32 9
  %114 = load i32, ptr %113, align 8
  %115 = sext i32 %114 to i64
  %116 = mul i64 %115, 16
  %117 = add i64 %116, 7
  %118 = and i64 %117, -8
  %119 = load ptr, ptr %7, align 8
  %120 = getelementptr inbounds nuw i8, ptr %119, i64 %118
  store ptr %120, ptr %7, align 8
  %121 = load ptr, ptr %7, align 8
  %122 = load ptr, ptr %6, align 8
  %123 = getelementptr inbounds nuw %struct.xl_xact_parsed_commit, ptr %122, i32 0, i32 17
  store ptr %121, ptr %123, align 8
  %124 = load ptr, ptr %5, align 8
  %125 = getelementptr inbounds nuw %struct.xl_xact_prepare, ptr %124, i32 0, i32 10
  %126 = load i32, ptr %125, align 4
  %127 = sext i32 %126 to i64
  %128 = mul i64 %127, 16
  %129 = add i64 %128, 7
  %130 = and i64 %129, -8
  %131 = load ptr, ptr %7, align 8
  %132 = getelementptr inbounds nuw i8, ptr %131, i64 %130
  store ptr %132, ptr %7, align 8
  %133 = load ptr, ptr %7, align 8
  %134 = load ptr, ptr %6, align 8
  %135 = getelementptr inbounds nuw %struct.xl_xact_parsed_commit, ptr %134, i32 0, i32 11
  store ptr %133, ptr %135, align 8
  %136 = load ptr, ptr %5, align 8
  %137 = getelementptr inbounds nuw %struct.xl_xact_prepare, ptr %136, i32 0, i32 11
  %138 = load i32, ptr %137, align 8
  %139 = sext i32 %138 to i64
  %140 = mul i64 %139, 16
  %141 = add i64 %140, 7
  %142 = and i64 %141, -8
  %143 = load ptr, ptr %7, align 8
  %144 = getelementptr inbounds nuw i8, ptr %143, i64 %142
  store ptr %144, ptr %7, align 8
  call void @llvm.lifetime.end.p0(i64 8, ptr %7) #7
  ret void
}