; Function Attrs: mustprogress nofree nounwind willreturn memory(argmem: readwrite) uwtable
define dso_local void @ParsePrepareRecord(i8 noundef zeroext %0, ptr noundef %1, ptr noundef initializes((0, 328)) %2) local_unnamed_addr #5 {
  %4 = getelementptr inbounds nuw i8, ptr %1, i64 72
  tail call void @llvm.memset.p0.i64(ptr noundef nonnull align 8 dereferenceable(328) %2, i8 0, i64 328, i1 false)
  %5 = getelementptr inbounds nuw i8, ptr %1, i64 16
  %6 = load i64, ptr %5, align 8
  store i64 %6, ptr %2, align 8
  %7 = getelementptr inbounds nuw i8, ptr %1, i64 56
  %8 = load i64, ptr %7, align 8
  %9 = getelementptr inbounds nuw i8, ptr %2, i64 312
  store i64 %8, ptr %9, align 8
  %10 = getelementptr inbounds nuw i8, ptr %1, i64 64
  %11 = load i64, ptr %10, align 8
  %12 = getelementptr inbounds nuw i8, ptr %2, i64 320
  store i64 %11, ptr %12, align 8
  %13 = getelementptr inbounds nuw i8, ptr %1, i64 8
  %14 = load i32, ptr %13, align 8
  %15 = getelementptr inbounds nuw i8, ptr %2, i64 80
  store i32 %14, ptr %15, align 8
  %16 = getelementptr inbounds nuw i8, ptr %1, i64 12
  %17 = load i32, ptr %16, align 4
  %18 = getelementptr inbounds nuw i8, ptr %2, i64 12
  store i32 %17, ptr %18, align 4
  %19 = getelementptr inbounds nuw i8, ptr %1, i64 28
  %20 = load i32, ptr %19, align 4
  %21 = getelementptr inbounds nuw i8, ptr %2, i64 20
  store i32 %20, ptr %21, align 4
  %22 = getelementptr inbounds nuw i8, ptr %1, i64 32
  %23 = load i32, ptr %22, align 8
  %24 = getelementptr inbounds nuw i8, ptr %2, i64 32
  store i32 %23, ptr %24, align 8
  %25 = getelementptr inbounds nuw i8, ptr %1, i64 36
  %26 = load i32, ptr %25, align 4
  %27 = getelementptr inbounds nuw i8, ptr %2, i64 284
  store i32 %26, ptr %27, align 4
  %28 = getelementptr inbounds nuw i8, ptr %1, i64 48
  %29 = load i32, ptr %28, align 8
  %30 = getelementptr inbounds nuw i8, ptr %2, i64 64
  store i32 %29, ptr %30, align 8
  %31 = getelementptr inbounds nuw i8, ptr %2, i64 84
  %32 = getelementptr inbounds nuw i8, ptr %1, i64 54
  %33 = load i16, ptr %32, align 2
  %34 = zext i16 %33 to i64
  %35 = tail call ptr @strncpy(ptr noundef nonnull %31, ptr noundef nonnull %4, i64 noundef %34) #10
  %36 = load i16, ptr %32, align 2
  %37 = zext i16 %36 to i64
  %38 = add nuw nsw i64 %37, 7
  %39 = and i64 %38, 131064
  %40 = getelementptr inbounds nuw i8, ptr %4, i64 %39
  %41 = getelementptr inbounds nuw i8, ptr %2, i64 24
  store ptr %40, ptr %41, align 8
  %42 = load i32, ptr %19, align 4
  %43 = sext i32 %42 to i64
  %44 = shl nsw i64 %43, 2
  %45 = add nsw i64 %44, 7
  %46 = and i64 %45, -8
  %47 = getelementptr inbounds nuw i8, ptr %40, i64 %46
  %48 = getelementptr inbounds nuw i8, ptr %2, i64 40
  store ptr %47, ptr %48, align 8
  %49 = load i32, ptr %22, align 8
  %50 = sext i32 %49 to i64
  %51 = mul nsw i64 %50, 12
  %52 = add nsw i64 %51, 7
  %53 = and i64 %52, -8
  %54 = getelementptr inbounds nuw i8, ptr %47, i64 %53
  %55 = getelementptr inbounds nuw i8, ptr %2, i64 288
  store ptr %54, ptr %55, align 8
  %56 = load i32, ptr %25, align 4
  %57 = sext i32 %56 to i64
  %58 = mul nsw i64 %57, 12
  %59 = add nsw i64 %58, 7
  %60 = and i64 %59, -8
  %61 = getelementptr inbounds nuw i8, ptr %54, i64 %60
  %62 = getelementptr inbounds nuw i8, ptr %2, i64 56
  store ptr %61, ptr %62, align 8
  %63 = getelementptr inbounds nuw i8, ptr %1, i64 40
  %64 = load i32, ptr %63, align 8
  %65 = sext i32 %64 to i64
  %66 = shl nsw i64 %65, 4
  %67 = getelementptr inbounds nuw i8, ptr %61, i64 %66
  %68 = getelementptr inbounds nuw i8, ptr %2, i64 304
  store ptr %67, ptr %68, align 8
  %69 = getelementptr inbounds nuw i8, ptr %1, i64 44
  %70 = load i32, ptr %69, align 4
  %71 = sext i32 %70 to i64
  %72 = shl nsw i64 %71, 4
  %73 = getelementptr inbounds nuw i8, ptr %67, i64 %72
  %74 = getelementptr inbounds nuw i8, ptr %2, i64 72
  store ptr %73, ptr %74, align 8
  ret void
}